; Function Attrs: mustprogress nounwind uwtable
define hidden void @_ZNK13CollectedHeap14print_on_errorEP12outputStream(ptr noundef nonnull align 8 dereferenceable(104) %0, ptr noundef nonnull %1) unnamed_addr #0 align 2 {
  tail call void (ptr, ptr, ...) @_ZN12outputStream8print_crEPKcz(ptr noundef nonnull align 8 dereferenceable(56) %1, ptr noundef nonnull @.str.10) #18
  %3 = load ptr, ptr %0, align 8
  %4 = getelementptr inbounds i8, ptr %3, i64 328
  %5 = load ptr, ptr %4, align 8
  tail call void %5(ptr noundef nonnull align 8 dereferenceable(104) %0, ptr noundef nonnull %1) #18
  tail call void @_ZN12outputStream2crEv(ptr noundef nonnull align 8 dereferenceable(56) %1) #18
  %6 = load ptr, ptr @_ZN10BarrierSet12_barrier_setE, align 8
  %.not = icmp eq ptr %6, null
  br i1 %.not, label %11, label %7

7:                                                ; preds = %2
  %8 = load ptr, ptr %6, align 8
  %9 = getelementptr inbounds i8, ptr %8, i64 48
  %10 = load ptr, ptr %9, align 8
  tail call void %10(ptr noundef nonnull align 8 dereferenceable(64) %6, ptr noundef nonnull %1) #18
  br label %11

11:                                               ; preds = %7, %2
  ret void
}